; Function Attrs: mustprogress uwtable
define noundef zeroext i1 @_Z22initSimulatedAnnealingRK10t_inputrecP14gmx_ekindata_tPN3gmx6UpdateE(ptr noundef nonnull align 8 dereferenceable(880) %0, ptr noundef %1, ptr noundef %2) local_unnamed_addr #0 {
  %4 = tail call noundef zeroext i1 @_Z20doSimulatedAnnealingRK10t_inputrec(ptr noundef nonnull align 8 dereferenceable(880) %0)
  br i1 %4, label %5, label %9

5:                                                ; preds = %3
  %6 = getelementptr inbounds nuw i8, ptr %0, i64 80
  %7 = load double, ptr %6, align 8, !tbaa !421
  %8 = fptrunc double %7 to float
  tail call void @_Z28update_annealing_target_tempRK10t_inputrecfP14gmx_ekindata_tPN3gmx6UpdateE(ptr noundef nonnull align 8 dereferenceable(880) %0, float noundef %8, ptr noundef %1, ptr noundef %2)
  br label %9

9:                                                ; preds = %5, %3
  ret i1 %4
}